target datalayout = "e-m:e-p270:32:32-p271:32:32-p272:64:64-i64:64-i128:128-f80:128-n8:16:32:64-S128"
target triple = "x86_64-pc-linux-gnu"

%"class.testing::internal::ParamGenerator" = type { %"class.testing::internal::linked_ptr" }
%"class.testing::internal::linked_ptr" = type { ptr, %"class.testing::internal::linked_ptr_internal" }
%"class.testing::internal::linked_ptr_internal" = type { ptr }
%"class.std::vector.69" = type { %"struct.std::_Vector_base.70" }
%"struct.std::_Vector_base.70" = type { %"struct.std::_Vector_base<std::tuple<std::__cxx11::basic_string<char>, int, cv::Rect_<int>>, std::allocator<std::tuple<std::__cxx11::basic_string<char>, int, cv::Rect_<int>>>>::_Vector_impl" }
%"struct.std::_Vector_base<std::tuple<std::__cxx11::basic_string<char>, int, cv::Rect_<int>>, std::allocator<std::tuple<std::__cxx11::basic_string<char>, int, cv::Rect_<int>>>>::_Vector_impl" = type { %"struct.std::_Vector_base<std::tuple<std::__cxx11::basic_string<char>, int, cv::Rect_<int>>, std::allocator<std::tuple<std::__cxx11::basic_string<char>, int, cv::Rect_<int>>>>::_Vector_impl_data" }
%"struct.std::_Vector_base<std::tuple<std::__cxx11::basic_string<char>, int, cv::Rect_<int>>, std::allocator<std::tuple<std::__cxx11::basic_string<char>, int, cv::Rect_<int>>>>::_Vector_impl_data" = type { ptr, ptr, ptr }
%"class.__gnu_cxx::__normal_iterator.74" = type { ptr }

; Function Attrs: mustprogress nounwind uwtable
define linkonce_odr hidden void @_ZN9__gnu_cxx17__normal_iteratorIPKSt5tupleIJNSt7__cxx1112basic_stringIcSt11char_traitsIcESaIcEEEiN2cv5Rect_IiEEEESt6vectorISB_SaISB_EEEC2ERKSD_(ptr noundef nonnull align 8 dereferenceable(8) %0, ptr noundef nonnull align 8 dereferenceable(8) %1) unnamed_addr #7 comdat align 2 {
  %3 = alloca ptr, align 8
  %4 = alloca ptr, align 8
  store ptr %0, ptr %3, align 8, !tbaa !345
  store ptr %1, ptr %4, align 8, !tbaa !374
  %5 = load ptr, ptr %3, align 8
  %6 = getelementptr inbounds nuw %"class.__gnu_cxx::__normal_iterator.74", ptr %5, i32 0, i32 0
  %7 = load ptr, ptr %4, align 8, !tbaa !374
  %8 = load ptr, ptr %7, align 8, !tbaa !116
  store ptr %8, ptr %6, align 8, !tbaa !352
  ret void
}

; Function Attrs: mustprogress nounwind uwtable
define linkonce_odr hidden ptr @_ZNKSt6vectorISt5tupleIJNSt7__cxx1112basic_stringIcSt11char_traitsIcESaIcEEEiN2cv5Rect_IiEEEESaISA_EE3endEv(ptr noundef nonnull align 8 dereferenceable(24) %0) #7 comdat align 2 {
  %2 = alloca %"class.__gnu_cxx::__normal_iterator.74", align 8
  %3 = alloca ptr, align 8
  store ptr %0, ptr %3, align 8, !tbaa !323
  %4 = load ptr, ptr %3, align 8
  %5 = getelementptr inbounds nuw %"struct.std::_Vector_base.70", ptr %4, i32 0, i32 0
  %6 = getelementptr inbounds nuw %"struct.std::_Vector_base<std::tuple<std::__cxx11::basic_string<char>, int, cv::Rect_<int>>, std::allocator<std::tuple<std::__cxx11::basic_string<char>, int, cv::Rect_<int>>>>::_Vector_impl_data", ptr %5, i32 0, i32 1
  call void @_ZN9__gnu_cxx17__normal_iteratorIPKSt5tupleIJNSt7__cxx1112basic_stringIcSt11char_traitsIcESaIcEEEiN2cv5Rect_IiEEEESt6vectorISB_SaISB_EEEC2ERKSD_(ptr noundef nonnull align 8 dereferenceable(8) %2, ptr noundef nonnull align 8 dereferenceable(8) %6) #3
  %7 = getelementptr inbounds nuw %"class.__gnu_cxx::__normal_iterator.74", ptr %2, i32 0, i32 0
  %8 = load ptr, ptr %7, align 8
  ret ptr %8
}

; Function Attrs: mustprogress nounwind uwtable
define linkonce_odr hidden ptr @_ZNKSt6vectorISt5tupleIJNSt7__cxx1112basic_stringIcSt11char_traitsIcESaIcEEEiN2cv5Rect_IiEEEESaISA_EE5beginEv(ptr noundef nonnull align 8 dereferenceable(24) %0) #7 comdat align 2 {
  %2 = alloca %"class.__gnu_cxx::__normal_iterator.74", align 8
  %3 = alloca ptr, align 8
  store ptr %0, ptr %3, align 8, !tbaa !323
  %4 = load ptr, ptr %3, align 8
  %5 = getelementptr inbounds nuw %"struct.std::_Vector_base.70", ptr %4, i32 0, i32 0
  %6 = getelementptr inbounds nuw %"struct.std::_Vector_base<std::tuple<std::__cxx11::basic_string<char>, int, cv::Rect_<int>>, std::allocator<std::tuple<std::__cxx11::basic_string<char>, int, cv::Rect_<int>>>>::_Vector_impl_data", ptr %5, i32 0, i32 0
  call void @_ZN9__gnu_cxx17__normal_iteratorIPKSt5tupleIJNSt7__cxx1112basic_stringIcSt11char_traitsIcESaIcEEEiN2cv5Rect_IiEEEESt6vectorISB_SaISB_EEEC2ERKSD_(ptr noundef nonnull align 8 dereferenceable(8) %2, ptr noundef nonnull align 8 dereferenceable(8) %6) #3
  %7 = getelementptr inbounds nuw %"class.__gnu_cxx::__normal_iterator.74", ptr %2, i32 0, i32 0
  %8 = load ptr, ptr %7, align 8
  ret ptr %8
}

; Function Attrs: mustprogress uwtable
define linkonce_odr hidden void @_ZN7testing8ValuesInISt6vectorISt5tupleIJNSt7__cxx1112basic_stringIcSt11char_traitsIcESaIcEEEiN2cv5Rect_IiEEEESaISC_EEEENS_8internal14ParamGeneratorINT_10value_typeEEERKSH_(ptr dead_on_unwind noalias writable sret(%"class.testing::internal::ParamGenerator") align 8 %0, ptr noundef nonnull align 8 dereferenceable(24) %1) #6 comdat {
  %3 = alloca ptr, align 8
  %4 = alloca ptr, align 8
  %5 = alloca %"class.__gnu_cxx::__normal_iterator.74", align 8
  %6 = alloca %"class.__gnu_cxx::__normal_iterator.74", align 8
  store ptr %0, ptr %3, align 8
  store ptr %1, ptr %4, align 8, !tbaa !323
  %7 = load ptr, ptr %4, align 8, !tbaa !323
  %8 = call ptr @_ZNKSt6vectorISt5tupleIJNSt7__cxx1112basic_stringIcSt11char_traitsIcESaIcEEEiN2cv5Rect_IiEEEESaISA_EE5beginEv(ptr noundef nonnull align 8 dereferenceable(24) %7) #3
  %9 = getelementptr inbounds nuw %"class.__gnu_cxx::__normal_iterator.74", ptr %5, i32 0, i32 0
  store ptr %8, ptr %9, align 8
  %10 = load ptr, ptr %4, align 8, !tbaa !323
  %11 = call ptr @_ZNKSt6vectorISt5tupleIJNSt7__cxx1112basic_stringIcSt11char_traitsIcESaIcEEEiN2cv5Rect_IiEEEESaISA_EE3endEv(ptr noundef nonnull align 8 dereferenceable(24) %10) #3
  %12 = getelementptr inbounds nuw %"class.__gnu_cxx::__normal_iterator.74", ptr %6, i32 0, i32 0
  store ptr %11, ptr %12, align 8
  %13 = getelementptr inbounds nuw %"class.__gnu_cxx::__normal_iterator.74", ptr %5, i32 0, i32 0
  %14 = load ptr, ptr %13, align 8
  %15 = getelementptr inbounds nuw %"class.__gnu_cxx::__normal_iterator.74", ptr %6, i32 0, i32 0
  %16 = load ptr, ptr %15, align 8
  call void @_ZN7testing8ValuesInIN9__gnu_cxx17__normal_iteratorIPKSt5tupleIJNSt7__cxx1112basic_stringIcSt11char_traitsIcESaIcEEEiN2cv5Rect_IiEEEESt6vectorISD_SaISD_EEEEEENS_8internal14ParamGeneratorINSK_14IteratorTraitsIT_E10value_typeEEESN_SN_(ptr dead_on_unwind writable sret(%"class.testing::internal::ParamGenerator") align 8 %0, ptr %14, ptr %16)
  ret void
}

; Function Attrs: mustprogress uwtable
define internal void @_ZN11opencv_test12_GLOBAL__N_133gtest_Tracking_TLD_EvalGenerator_B5cxx11Ev(ptr dead_on_unwind noalias writable sret(%"class.testing::internal::ParamGenerator") align 8 %0) #6 personality ptr @__gxx_personality_v0 {
  %2 = alloca ptr, align 8
  %3 = alloca %"class.std::vector.69", align 8
  %4 = alloca ptr, align 8
  %5 = alloca i32, align 4
  store ptr %0, ptr %2, align 8
  call void @llvm.lifetime.start.p0(i64 24, ptr %3) #3
  call void @_ZN11opencv_test12_GLOBAL__N_117getTrackingParamsB5cxx11Ev(ptr dead_on_unwind writable sret(%"class.std::vector.69") align 8 %3)
  invoke void @_ZN7testing8ValuesInISt6vectorISt5tupleIJNSt7__cxx1112basic_stringIcSt11char_traitsIcESaIcEEEiN2cv5Rect_IiEEEESaISC_EEEENS_8internal14ParamGeneratorINT_10value_typeEEERKSH_(ptr dead_on_unwind writable sret(%"class.testing::internal::ParamGenerator") align 8 %0, ptr noundef nonnull align 8 dereferenceable(24) %3)
          to label %6 unwind label %7

6:                                                ; preds = %1
  call void @_ZNSt6vectorISt5tupleIJNSt7__cxx1112basic_stringIcSt11char_traitsIcESaIcEEEiN2cv5Rect_IiEEEESaISA_EED2Ev(ptr noundef nonnull align 8 dereferenceable(24) %3) #3
  call void @llvm.lifetime.end.p0(i64 24, ptr %3) #3
  ret void

7:                                                ; preds = %1
  %8 = landingpad { ptr, i32 }
          cleanup
  %9 = extractvalue { ptr, i32 } %8, 0
  store ptr %9, ptr %4, align 8
  %10 = extractvalue { ptr, i32 } %8, 1
  store i32 %10, ptr %5, align 4
  call void @_ZNSt6vectorISt5tupleIJNSt7__cxx1112basic_stringIcSt11char_traitsIcESaIcEEEiN2cv5Rect_IiEEEESaISA_EED2Ev(ptr noundef nonnull align 8 dereferenceable(24) %3) #3
  call void @llvm.lifetime.end.p0(i64 24, ptr %3) #3
  br label %11

11:                                               ; preds = %7
  %12 = load ptr, ptr %4, align 8
  %13 = load i32, ptr %5, align 4
  %14 = insertvalue { ptr, i32 } poison, ptr %12, 0
  %15 = insertvalue { ptr, i32 } %14, i32 %13, 1
  resume { ptr, i32 } %15
}